target datalayout = "e-m:e-p270:32:32-p271:32:32-p272:64:64-i64:64-i128:128-f80:128-n8:16:32:64-S128"
target triple = "x86_64-pc-linux-gnu"

%struct.ArchiveModuleCallbacks = type { ptr, ptr, ptr, ptr }

@ArchiveCallbacks = internal global ptr null, align 8
@archive_module_state = internal global ptr null, align 8

; Function Attrs: nounwind uwtable
define internal void @pgarch_call_module_shutdown_cb(i32 noundef %0, i64 noundef %1) #0 {
  %3 = alloca i32, align 4
  %4 = alloca i64, align 8
  store i32 %0, ptr %3, align 4
  store i64 %1, ptr %4, align 8
  %5 = load ptr, ptr @ArchiveCallbacks, align 8
  %6 = getelementptr inbounds nuw %struct.ArchiveModuleCallbacks, ptr %5, i32 0, i32 3
  %7 = load ptr, ptr %6, align 8
  %8 = icmp ne ptr %7, null
  br i1 %8, label %9, label %14

9:                                                ; preds = %2
  %10 = load ptr, ptr @ArchiveCallbacks, align 8
  %11 = getelementptr inbounds nuw %struct.ArchiveModuleCallbacks, ptr %10, i32 0, i32 3
  %12 = load ptr, ptr %11, align 8
  %13 = load ptr, ptr @archive_module_state, align 8
  call void %12(ptr noundef %13)
  br label %14

14:                                               ; preds = %9, %2
  ret void
}