; Function Attrs: nounwind uwtable
define internal void @pgarch_call_module_shutdown_cb(i32 %0, i64 %1) #0 {
  %3 = load ptr, ptr @ArchiveCallbacks, align 8
  %4 = getelementptr inbounds nuw i8, ptr %3, i64 24
  %5 = load ptr, ptr %4, align 8
  %.not = icmp eq ptr %5, null
  br i1 %.not, label %8, label %6

6:                                                ; preds = %2
  %7 = load ptr, ptr @archive_module_state, align 8
  tail call void %5(ptr noundef %7) #19
  br label %8

8:                                                ; preds = %6, %2
  ret void
}